target datalayout = "e-m:e-p270:32:32-p271:32:32-p272:64:64-i64:64-i128:128-f80:128-n8:16:32:64-S128"
target triple = "x86_64-pc-linux-gnu"

@_ZN7TypeInt3INTE = external global ptr, align 8
@_ZN8TypeLong4LONGE = external global ptr, align 8
@_ZN4Type4HALFE = external global ptr, align 8
@_ZN7TypePtr7NOTNULLE = external global ptr, align 8

; Function Attrs: mustprogress nounwind uwtable
define hidden noundef ptr @_ZN11OptoRuntime15array_fill_TypeEv() #1 align 2 {
  %1 = alloca ptr, align 8
  %2 = alloca i32, align 4
  %3 = alloca ptr, align 8
  %4 = alloca ptr, align 8
  store i32 5, ptr %2, align 4
  %5 = call noundef ptr @_ZN9TypeTuple6fieldsEj(i32 noundef 4)
  store ptr %5, ptr %1, align 8
  %6 = load ptr, ptr @_ZN7TypePtr7NOTNULLE, align 8
  %7 = load ptr, ptr %1, align 8
  %8 = load i32, ptr %2, align 4
  %9 = add nsw i32 %8, 1
  store i32 %9, ptr %2, align 4
  %10 = sext i32 %8 to i64
  %11 = getelementptr inbounds ptr, ptr %7, i64 %10
  store ptr %6, ptr %11, align 8
  %12 = load ptr, ptr @_ZN7TypeInt3INTE, align 8
  %13 = load ptr, ptr %1, align 8
  %14 = load i32, ptr %2, align 4
  %15 = add nsw i32 %14, 1
  store i32 %15, ptr %2, align 4
  %16 = sext i32 %14 to i64
  %17 = getelementptr inbounds ptr, ptr %13, i64 %16
  store ptr %12, ptr %17, align 8
  %18 = load ptr, ptr @_ZN8TypeLong4LONGE, align 8
  %19 = load ptr, ptr %1, align 8
  %20 = load i32, ptr %2, align 4
  %21 = add nsw i32 %20, 1
  store i32 %21, ptr %2, align 4
  %22 = sext i32 %20 to i64
  %23 = getelementptr inbounds ptr, ptr %19, i64 %22
  store ptr %18, ptr %23, align 8
  %24 = load ptr, ptr @_ZN4Type4HALFE, align 8
  %25 = load ptr, ptr %1, align 8
  %26 = load i32, ptr %2, align 4
  %27 = add nsw i32 %26, 1
  store i32 %27, ptr %2, align 4
  %28 = sext i32 %26 to i64
  %29 = getelementptr inbounds ptr, ptr %25, i64 %28
  store ptr %24, ptr %29, align 8
  %30 = load i32, ptr %2, align 4
  %31 = load ptr, ptr %1, align 8
  %32 = call noundef ptr @_ZN9TypeTuple4makeEjPPK4Type(i32 noundef %30, ptr noundef %31)
  store ptr %32, ptr %3, align 8
  %33 = call noundef ptr @_ZN9TypeTuple6fieldsEj(i32 noundef 1)
  store ptr %33, ptr %1, align 8
  %34 = load ptr, ptr %1, align 8
  %35 = getelementptr inbounds ptr, ptr %34, i64 5
  store ptr null, ptr %35, align 8
  %36 = load ptr, ptr %1, align 8
  %37 = call noundef ptr @_ZN9TypeTuple4makeEjPPK4Type(i32 noundef 5, ptr noundef %36)
  store ptr %37, ptr %4, align 8
  %38 = load ptr, ptr %3, align 8
  %39 = load ptr, ptr %4, align 8
  %40 = call noundef ptr @_ZN8TypeFunc4makeEPK9TypeTupleS2_(ptr noundef %38, ptr noundef %39)
  ret ptr %40
}